; Function Attrs: nounwind uwtable
define range(i32 -1, -2147483648) i32 @dup2(i32 noundef %0, i32 noundef %1) local_unnamed_addr #1 {
  %3 = tail call ptr @nxsched_self() #10
  %4 = tail call fastcc i32 @nx_dup3_from_tcb(ptr noundef %3, i32 noundef %0, i32 noundef %1, i32 noundef 0)
  %5 = icmp slt i32 %4, 0
  br i1 %5, label %6, label %9

6:                                                ; preds = %2
  %7 = sub nsw i32 0, %4
  %8 = tail call ptr @__errno() #10
  store i32 %7, ptr %8, align 4
  br label %9

9:                                                ; preds = %6, %2
  %.0 = phi i32 [ -1, %6 ], [ %4, %2 ]
  ret i32 %.0
}